
boot.bin:     file format binary

Disassembly of section .data:

80014000 <.data>:
80014000:	53555243 	cmppl	r5, #805306372	; 0x30000004
80014004:	e28fda01 	add	sp, pc, #4096	; 0x1000
80014008:	e3a0c102 	mov	ip, #-2147483648	; 0x80000000
8001400c:	e3a000d3 	mov	r0, #211	; 0xd3
80014010:	e129f000 	msr	CPSR_fc, r0
80014014:	e169f000 	msr	SPSR_fc, r0
80014018:	eb00002c 	bl	0x800140d0
8001401c:	eb0000c2 	bl	0x8001432c
80014020:	eb000031 	bl	0x800140ec
80014024:	eb0000ff 	bl	0x80014428
80014028:	e3a02501 	mov	r2, #4194304	; 0x400000
8001402c:	e2522001 	subs	r2, r2, #1	; 0x1
80014030:	1afffffd 	bne	0x8001402c
80014034:	e28f0028 	add	r0, pc, #40	; 0x28
80014038:	eb0000c6 	bl	0x80014358
8001403c:	eb0000ba 	bl	0x8001432c
80014040:	eb00003d 	bl	0x8001413c
80014044:	eb000045 	bl	0x80014160
80014048:	e3a00000 	mov	r0, #0	; 0x0
8001404c:	eb00005c 	bl	0x800141c4
80014050:	e3a02902 	mov	r2, #32768	; 0x8000
80014054:	eb00010d 	bl	0x80014490
80014058:	e3a0fa09 	mov	pc, #36864	; 0x9000
8001405c:	e59f0068 	ldr	r0, [pc, #104]	; 0x800140cc
80014060:	ea00012c 	b	0x80014518
80014064:	0a0d0a0d 	beq	0x803568a0
80014068:	4f203e3e 	swimi	0x00203e3e
8001406c:	204e4550 	subcs	r4, lr, r0, asr r5
80014070:	372d5354 	undefined
80014074:	20303532 	eorcss	r3, r0, r2, lsr r5
80014078:	544f4f42 	strplb	r4, [pc], #3906	; 0x80014080
8001407c:	44414f4c 	strmib	r4, [r1], #-3916
80014080:	202c5245 	eorcs	r5, ip, r5, asr #4
80014084:	20766552 	rsbcss	r6, r6, r2, asr r5
80014088:	30302e31 	eorccs	r2, r0, r1, lsr lr
8001408c:	0d3c3c20 	ldceq	12, cr3, [ip, #-128]!
80014090:	5244530a 	subpl	r5, r4, #671088640	; 0x28000000
80014094:	333a4d41 	teqcc	sl, #4160	; 0x1040
80014098:	2c424d32 	mcrrcs	13, 3, r4, r2, cr2
8001409c:	414c4620 	cmpmi	ip, r0, lsr #12
800140a0:	333a4853 	teqcc	sl, #5439488	; 0x530000
800140a4:	2c424d32 	mcrrcs	13, 3, r4, r2, cr2
800140a8:	4f4f4220 	swimi	0x004f4220
800140ac:	65533a54 	ldrvsb	r3, [r3, #-2644]
800140b0:	6c616972 	stcvsl	9, cr6, [r1], #-456
800140b4:	4c42202c 	mcrrmi	0, 2, r2, r2, cr12
800140b8:	4a223a44 	bmi	0x808a29d0
800140bc:	20206e61 	eorcs	r6, r0, r1, ror #28
800140c0:	30322033 	eorccs	r2, r2, r3, lsr r0
800140c4:	0d223731 	stceq	7, cr3, [r2, #-196]!
800140c8:	000a0d0a 	andeq	r0, sl, sl, lsl #26
800140cc:	aaaa0000 	bge	0x7ea940d4
800140d0:	e3a0058f 	mov	r0, #599785472	; 0x23c00000
800140d4:	e3a01005 	mov	r1, #5	; 0x5
800140d8:	e1c010b0 	strh	r1, [r0]
800140dc:	e3a0058e 	mov	r0, #595591168	; 0x23800000
800140e0:	e3a01000 	mov	r1, #0	; 0x0
800140e4:	e1c010b0 	strh	r1, [r0]
800140e8:	e12fff1e 	bx	lr
800140ec:	e28c0893 	add	r0, ip, #9633792	; 0x930000
800140f0:	e3a010aa 	mov	r1, #170	; 0xaa
800140f4:	e58010c0 	str	r1, [r0, #192]
800140f8:	e59f1038 	ldr	r1, [pc, #56]	; 0x80014138
800140fc:	e5801020 	str	r1, [r0, #32]
80014100:	e1a00000 	nop			(mov r0,r0)
80014104:	e1a00000 	nop			(mov r0,r0)
80014108:	e1a00000 	nop			(mov r0,r0)
8001410c:	e1a00000 	nop			(mov r0,r0)
80014110:	e1a00000 	nop			(mov r0,r0)
80014114:	ee110f10 	mrc	15, 0, r0, cr1, cr0, {0}
80014118:	e3800103 	orr	r0, r0, #-1073741824	; 0xc0000000
8001411c:	ee010f10 	mcr	15, 0, r0, cr1, cr0, {0}
80014120:	e1a00000 	nop			(mov r0,r0)
80014124:	e1a00000 	nop			(mov r0,r0)
80014128:	e1a00000 	nop			(mov r0,r0)
8001412c:	e1a00000 	nop			(mov r0,r0)
80014130:	e1a00000 	nop			(mov r0,r0)
80014134:	e12fff1e 	bx	lr
80014138:	02a4bb36 	adceq	fp, r4, #55296	; 0xd800
8001413c:	e28c2702 	add	r2, ip, #524288	; 0x80000
80014140:	e59f3014 	ldr	r3, [pc, #20]	; 0x8001415c
80014144:	e5823004 	str	r3, [r2, #4]
80014148:	e3833201 	orr	r3, r3, #268435456	; 0x10000000
8001414c:	e5823008 	str	r3, [r2, #8]
80014150:	e3c33c03 	bic	r3, r3, #768	; 0x300
80014154:	e5823018 	str	r3, [r2, #24]
80014158:	e12fff1e 	bx	lr
8001415c:	0000ffef 	andeq	pc, r0, pc, ror #31
80014160:	e28c9806 	add	r9, ip, #393216	; 0x60000
80014164:	e59f0050 	ldr	r0, [pc, #80]	; 0x800141bc
80014168:	e589001c 	str	r0, [r9, #28]
8001416c:	e28c1003 	add	r1, ip, #3	; 0x3
80014170:	e5891004 	str	r1, [r9, #4]
80014174:	e3a02602 	mov	r2, #2097152	; 0x200000
80014178:	e2522001 	subs	r2, r2, #1	; 0x1
8001417c:	1afffffd 	bne	0x80014178
80014180:	e28c1001 	add	r1, ip, #1	; 0x1
80014184:	e5891004 	str	r1, [r9, #4]
80014188:	e3a01010 	mov	r1, #16	; 0x10
8001418c:	e5891008 	str	r1, [r9, #8]
80014190:	e3a02602 	mov	r2, #2097152	; 0x200000
80014194:	e2522001 	subs	r2, r2, #1	; 0x1
80014198:	1afffffd 	bne	0x80014194
8001419c:	e59f101c 	ldr	r1, [pc, #28]	; 0x800141c0
800141a0:	e5891008 	str	r1, [r9, #8]
800141a4:	e28c1002 	add	r1, ip, #2	; 0x2
800141a8:	e5891004 	str	r1, [r9, #4]
800141ac:	e3a00c46 	mov	r0, #17920	; 0x4600
800141b0:	e1d010b0 	ldrh	r1, [r0]
800141b4:	e589c004 	str	ip, [r9, #4]
800141b8:	e12fff1e 	bx	lr
800141bc:	0021002c 	eoreq	r0, r1, ip, lsr #32
800141c0:	0000030d 	andeq	r0, r0, sp, lsl #6
800141c4:	e1a09000 	mov	r9, r0
800141c8:	e3a01902 	mov	r1, #32768	; 0x8000
800141cc:	e3a03000 	mov	r3, #0	; 0x0
800141d0:	e1a04001 	mov	r4, r1
800141d4:	e1c940b0 	strh	r4, [r9]
800141d8:	e1e02001 	mvn	r2, r1
800141dc:	e1c920b2 	strh	r2, [r9, #2]
800141e0:	e1d900b0 	ldrh	r0, [r9]
800141e4:	e1500001 	cmp	r0, r1
800141e8:	e0202001 	eor	r2, r0, r1
800141ec:	11833002 	orrne	r3, r3, r2
800141f0:	e1b010a1 	movs	r1, r1, lsr #1
800141f4:	1afffff5 	bne	0x800141d0
800141f8:	e3530000 	cmp	r3, #0	; 0x0
800141fc:	1a000028 	bne	0x800142a4
80014200:	e3a01301 	mov	r1, #67108864	; 0x4000000
80014204:	e59f50d8 	ldr	r5, [pc, #216]	; 0x800142e4
80014208:	e3a03000 	mov	r3, #0	; 0x0
8001420c:	e1896001 	orr	r6, r9, r1
80014210:	e1d620b0 	ldrh	r2, [r6]
80014214:	e22220ff 	eor	r2, r2, #255	; 0xff
80014218:	e2222cff 	eor	r2, r2, #65280	; 0xff00
8001421c:	e1c920b0 	strh	r2, [r9]
80014220:	e1d640b0 	ldrh	r4, [r6]
80014224:	e1520004 	cmp	r2, r4
80014228:	01833001 	orreq	r3, r3, r1
8001422c:	e1c56001 	bic	r6, r5, r1
80014230:	e1866009 	orr	r6, r6, r9
80014234:	e1d620b0 	ldrh	r2, [r6]
80014238:	e22220ff 	eor	r2, r2, #255	; 0xff
8001423c:	e2222cff 	eor	r2, r2, #65280	; 0xff00
80014240:	e1c520b0 	strh	r2, [r5]
80014244:	e1d640b0 	ldrh	r4, [r6]
80014248:	e1520004 	cmp	r2, r4
8001424c:	01833001 	orreq	r3, r3, r1
80014250:	e1a010a1 	mov	r1, r1, lsr #1
80014254:	e3510001 	cmp	r1, #1	; 0x1
80014258:	1affffeb 	bne	0x8001420c
8001425c:	e3d3350a 	bics	r3, r3, #41943040	; 0x2800000
80014260:	1a000015 	bne	0x800142bc
80014264:	e59f207c 	ldr	r2, [pc, #124]	; 0x800142e8
80014268:	e3a04000 	mov	r4, #0	; 0x0
8001426c:	e3a01802 	mov	r1, #131072	; 0x20000
80014270:	e18940b1 	strh	r4, [r9, r1]
80014274:	e2511002 	subs	r1, r1, #2	; 0x2
80014278:	5afffffc 	bpl	0x80014270
8001427c:	e3a01802 	mov	r1, #131072	; 0x20000
80014280:	e19930b1 	ldrh	r3, [r9, r1]
80014284:	e1540003 	cmp	r4, r3
80014288:	1a000011 	bne	0x800142d4
8001428c:	e2511002 	subs	r1, r1, #2	; 0x2
80014290:	5afffffa 	bpl	0x80014280
80014294:	e0844005 	add	r4, r4, r5
80014298:	e3150a01 	tst	r5, #4096	; 0x1000
8001429c:	0afffff2 	beq	0x8001426c
800142a0:	e12fff1e 	bx	lr
800142a4:	e1a02009 	mov	r2, r9
800142a8:	e28f0048 	add	r0, pc, #72	; 0x48
800142ac:	eb000029 	bl	0x80014358
800142b0:	eb000039 	bl	0x8001439c
800142b4:	e59f0030 	ldr	r0, [pc, #48]	; 0x800142ec
800142b8:	ea000096 	b	0x80014518
800142bc:	e1a02009 	mov	r2, r9
800142c0:	e28f0041 	add	r0, pc, #65	; 0x41
800142c4:	eb000023 	bl	0x80014358
800142c8:	eb000033 	bl	0x8001439c
800142cc:	e59f001c 	ldr	r0, [pc, #28]	; 0x800142f0
800142d0:	ea000090 	b	0x80014518
800142d4:	e28f003e 	add	r0, pc, #62	; 0x3e
800142d8:	eb00001e 	bl	0x80014358
800142dc:	e59f0010 	ldr	r0, [pc, #16]	; 0x800142f4
800142e0:	ea00008c 	b	0x80014518
800142e4:	057ffffe 	ldreqb	pc, [pc, #-4094]!	; 0x800132ee
800142e8:	00005555 	andeq	r5, r0, r5, asr r5
800142ec:	eeee4444 	cdp	4, 14, cr4, cr14, cr4, {2}
800142f0:	dddd8888 	ldclel	8, cr8, [sp, #544]
800142f4:	ddddcccc 	ldclel	12, cr12, [sp, #816]
800142f8:	3a525245 	bcc	0x814a8c14
800142fc:	4d415220 	sfmmi	f5, 2, [r1, #-128]
80014300:	74614420 	strvcbt	r4, [r1], #-1056
80014304:	0a0d3a61 	beq	0x80362c90
80014308:	52524500 	subpls	r4, r2, #0	; 0x0
8001430c:	4152203a 	cmpmi	r2, sl, lsr r0
80014310:	6441204d 	strvsb	r2, [r1], #-77
80014314:	0d3a7264 	lfmeq	f7, 4, [sl, #-400]!
80014318:	5245000a 	subpl	r0, r5, #10	; 0xa
8001431c:	52203a52 	eorpl	r3, r0, #335872	; 0x52000
80014320:	43204d41 	teqmi	r0, #4160	; 0x1040
80014324:	3a6c6c65 	bcc	0x81b2f4c0
80014328:	00000a0d 	andeq	r0, r0, sp, lsl #20
8001432c:	e92d4003 	stmdb	sp!, {r0, r1, lr}
80014330:	e28c0723 	add	r0, ip, #9175040	; 0x8c0000
80014334:	e5901018 	ldr	r1, [r0, #24]
80014338:	e3110008 	tst	r1, #8	; 0x8
8001433c:	1afffffc 	bne	0x80014334
80014340:	e8bd8003 	ldmia	sp!, {r0, r1, pc}
80014344:	e92d4007 	stmdb	sp!, {r0, r1, r2, lr}
80014348:	ebfffff7 	bl	0x8001432c
8001434c:	e28c2723 	add	r2, ip, #9175040	; 0x8c0000
80014350:	e5c21000 	strb	r1, [r2]
80014354:	e8bd8007 	ldmia	sp!, {r0, r1, r2, pc}
80014358:	e92d4007 	stmdb	sp!, {r0, r1, r2, lr}
8001435c:	e4f01001 	ldrbt	r1, [r0], #1
80014360:	e3510000 	cmp	r1, #0	; 0x0
80014364:	0a000001 	beq	0x80014370
80014368:	ebfffff5 	bl	0x80014344
8001436c:	eafffffa 	b	0x8001435c
80014370:	e8bd8007 	ldmia	sp!, {r0, r1, r2, pc}
80014374:	e92d4002 	stmdb	sp!, {r1, lr}
80014378:	e1a01c61 	mov	r1, r1, ror #24
8001437c:	ebfffff0 	bl	0x80014344
80014380:	e1a01c61 	mov	r1, r1, ror #24
80014384:	ebffffee 	bl	0x80014344
80014388:	e1a01c61 	mov	r1, r1, ror #24
8001438c:	ebffffec 	bl	0x80014344
80014390:	e1a01c61 	mov	r1, r1, ror #24
80014394:	ebffffea 	bl	0x80014344
80014398:	e8bd8002 	ldmia	sp!, {r1, pc}
8001439c:	e92d400f 	stmdb	sp!, {r0, r1, r2, r3, lr}
800143a0:	e3a00020 	mov	r0, #32	; 0x20
800143a4:	e1b03083 	movs	r3, r3, lsl #1
800143a8:	23a01058 	movcs	r1, #88	; 0x58
800143ac:	21a02082 	movcs	r2, r2, lsl #1
800143b0:	2a000002 	bcs	0x800143c0
800143b4:	e1b02082 	movs	r2, r2, lsl #1
800143b8:	23a01031 	movcs	r1, #49	; 0x31
800143bc:	33a01030 	movcc	r1, #48	; 0x30
800143c0:	ebffffdf 	bl	0x80014344
800143c4:	e2500001 	subs	r0, r0, #1	; 0x1
800143c8:	1afffff5 	bne	0x800143a4
800143cc:	e3a0100d 	mov	r1, #13	; 0xd
800143d0:	ebffffdb 	bl	0x80014344
800143d4:	e3a0100a 	mov	r1, #10	; 0xa
800143d8:	ebffffd9 	bl	0x80014344
800143dc:	e8bd800f 	ldmia	sp!, {r0, r1, r2, r3, pc}
800143e0:	e92d401e 	stmdb	sp!, {r1, r2, r3, r4, lr}
800143e4:	e28c2723 	add	r2, ip, #9175040	; 0x8c0000
800143e8:	e5921018 	ldr	r1, [r2, #24]
800143ec:	e3110010 	tst	r1, #16	; 0x10
800143f0:	1afffffc 	bne	0x800143e8
800143f4:	e5d20000 	ldrb	r0, [r2]
800143f8:	e8bd801e 	ldmia	sp!, {r1, r2, r3, r4, pc}
800143fc:	e92d4002 	stmdb	sp!, {r1, lr}
80014400:	ebfffff6 	bl	0x800143e0
80014404:	e1a01000 	mov	r1, r0
80014408:	ebfffff4 	bl	0x800143e0
8001440c:	e1811400 	orr	r1, r1, r0, lsl #8
80014410:	ebfffff2 	bl	0x800143e0
80014414:	e1811800 	orr	r1, r1, r0, lsl #16
80014418:	ebfffff0 	bl	0x800143e0
8001441c:	e1811c00 	orr	r1, r1, r0, lsl #24
80014420:	e1a00001 	mov	r0, r1
80014424:	e8bd8002 	ldmia	sp!, {r1, pc}
80014428:	e28c2723 	add	r2, ip, #9175040	; 0x8c0000
8001442c:	e28c3893 	add	r3, ip, #9633792	; 0x930000
80014430:	e3a00000 	mov	r0, #0	; 0x0
80014434:	e5820014 	str	r0, [r2, #20]
80014438:	e5820004 	str	r0, [r2, #4]
8001443c:	e3a00003 	mov	r0, #3	; 0x3
80014440:	e5820100 	str	r0, [r2, #256]
80014444:	e3a000aa 	mov	r0, #170	; 0xaa
80014448:	e58300c0 	str	r0, [r3, #192]
8001444c:	e5930080 	ldr	r0, [r3, #128]
80014450:	e3c00701 	bic	r0, r0, #262144	; 0x40000
80014454:	e5830080 	str	r0, [r3, #128]
80014458:	e3a00003 	mov	r0, #3	; 0x3
8001445c:	e5820010 	str	r0, [r2, #16]
80014460:	e3a00000 	mov	r0, #0	; 0x0
80014464:	e582000c 	str	r0, [r2, #12]
80014468:	e3a00070 	mov	r0, #112	; 0x70
8001446c:	e5820008 	str	r0, [r2, #8]
80014470:	e3a00001 	mov	r0, #1	; 0x1
80014474:	e5820014 	str	r0, [r2, #20]
80014478:	e3a000aa 	mov	r0, #170	; 0xaa
8001447c:	e58300c0 	str	r0, [r3, #192]
80014480:	e5930080 	ldr	r0, [r3, #128]
80014484:	e3800701 	orr	r0, r0, #262144	; 0x40000
80014488:	e5830080 	str	r0, [r3, #128]
8001448c:	e12fff1e 	bx	lr
80014490:	e92d401f 	stmdb	sp!, {r0, r1, r2, r3, r4, lr}
80014494:	e1a04002 	mov	r4, r2
80014498:	e3a01003 	mov	r1, #3	; 0x3
8001449c:	ebffffa8 	bl	0x80014344
800144a0:	ebffffd5 	bl	0x800143fc
800144a4:	e1a03000 	mov	r3, r0
800144a8:	e0833002 	add	r3, r3, r2
800144ac:	e3a01040 	mov	r1, #64	; 0x40
800144b0:	ebffffa3 	bl	0x80014344
800144b4:	ebffffd0 	bl	0x800143fc
800144b8:	e4820004 	str	r0, [r2], #4
800144bc:	e1520003 	cmp	r2, r3
800144c0:	bafffffb 	blt	0x800144b4
800144c4:	e3a0105d 	mov	r1, #93	; 0x5d
800144c8:	ebffff9d 	bl	0x80014344
800144cc:	ebffff96 	bl	0x8001432c
800144d0:	e5940000 	ldr	r0, [r4]
800144d4:	e59f1018 	ldr	r1, [pc, #24]	; 0x800144f4
800144d8:	e1500001 	cmp	r0, r1
800144dc:	0a000003 	beq	0x800144f0
800144e0:	e28f0014 	add	r0, pc, #20	; 0x14
800144e4:	ebffff9b 	bl	0x80014358
800144e8:	e59f0008 	ldr	r0, [pc, #8]	; 0x800144f8
800144ec:	ea000009 	b	0x80014518
800144f0:	e8bd801f 	ldmia	sp!, {r0, r1, r2, r3, r4, pc}
800144f4:	53555243 	cmppl	r5, #805306372	; 0x30000004
800144f8:	aaaa5555 	bge	0x7eaa9a54
800144fc:	3a525245 	bcc	0x814a8e18
80014500:	55524320 	ldrplb	r4, [r2, #-800]
80014504:	6f6e2053 	swivs	0x006e2053
80014508:	6e692074 	mcrvs	0, 3, r2, cr9, cr4, {3}
8001450c:	72657320 	rsbvc	r7, r5, #-2147483648	; 0x80000000
80014510:	2e6c6169 	powcsez	f6, f4, #1.0
80014514:	00000a0d 	andeq	r0, r0, sp, lsl #20
80014518:	e28c3721 	add	r3, ip, #8650752	; 0x840000
8001451c:	e3a02702 	mov	r2, #524288	; 0x80000
80014520:	e2522001 	subs	r2, r2, #1	; 0x1
80014524:	1afffffd 	bne	0x80014520
80014528:	e2001003 	and	r1, r0, #3	; 0x3
8001452c:	e5831020 	str	r1, [r3, #32]
80014530:	e1a00160 	mov	r0, r0, ror #2
80014534:	eafffff8 	b	0x8001451c
80014538:	eafffffe 	b	0x80014538
8001453c:	00000000 	andeq	r0, r0, r0
80014540:	00000000 	andeq	r0, r0, r0
80014544:	00000000 	andeq	r0, r0, r0
80014548:	00000000 	andeq	r0, r0, r0
8001454c:	00000000 	andeq	r0, r0, r0
80014550:	00000000 	andeq	r0, r0, r0
80014554:	00000000 	andeq	r0, r0, r0
80014558:	00000000 	andeq	r0, r0, r0
8001455c:	00000000 	andeq	r0, r0, r0
80014560:	00000000 	andeq	r0, r0, r0
80014564:	00000000 	andeq	r0, r0, r0
80014568:	00000000 	andeq	r0, r0, r0
8001456c:	00000000 	andeq	r0, r0, r0
80014570:	00000000 	andeq	r0, r0, r0
80014574:	00000000 	andeq	r0, r0, r0
80014578:	00000000 	andeq	r0, r0, r0
8001457c:	00000000 	andeq	r0, r0, r0
80014580:	00000000 	andeq	r0, r0, r0
80014584:	00000000 	andeq	r0, r0, r0
80014588:	00000000 	andeq	r0, r0, r0
8001458c:	00000000 	andeq	r0, r0, r0
80014590:	00000000 	andeq	r0, r0, r0
80014594:	00000000 	andeq	r0, r0, r0
80014598:	00000000 	andeq	r0, r0, r0
8001459c:	00000000 	andeq	r0, r0, r0
800145a0:	00000000 	andeq	r0, r0, r0
800145a4:	00000000 	andeq	r0, r0, r0
800145a8:	00000000 	andeq	r0, r0, r0
800145ac:	00000000 	andeq	r0, r0, r0
800145b0:	00000000 	andeq	r0, r0, r0
800145b4:	00000000 	andeq	r0, r0, r0
800145b8:	00000000 	andeq	r0, r0, r0
800145bc:	00000000 	andeq	r0, r0, r0
800145c0:	00000000 	andeq	r0, r0, r0
800145c4:	00000000 	andeq	r0, r0, r0
800145c8:	00000000 	andeq	r0, r0, r0
800145cc:	00000000 	andeq	r0, r0, r0
800145d0:	00000000 	andeq	r0, r0, r0
800145d4:	00000000 	andeq	r0, r0, r0
800145d8:	00000000 	andeq	r0, r0, r0
800145dc:	00000000 	andeq	r0, r0, r0
800145e0:	00000000 	andeq	r0, r0, r0
800145e4:	00000000 	andeq	r0, r0, r0
800145e8:	00000000 	andeq	r0, r0, r0
800145ec:	00000000 	andeq	r0, r0, r0
800145f0:	00000000 	andeq	r0, r0, r0
800145f4:	00000000 	andeq	r0, r0, r0
800145f8:	00000000 	andeq	r0, r0, r0
800145fc:	00000000 	andeq	r0, r0, r0
80014600:	00000000 	andeq	r0, r0, r0
80014604:	00000000 	andeq	r0, r0, r0
80014608:	00000000 	andeq	r0, r0, r0
8001460c:	00000000 	andeq	r0, r0, r0
80014610:	00000000 	andeq	r0, r0, r0
80014614:	00000000 	andeq	r0, r0, r0
80014618:	00000000 	andeq	r0, r0, r0
8001461c:	00000000 	andeq	r0, r0, r0
80014620:	00000000 	andeq	r0, r0, r0
80014624:	00000000 	andeq	r0, r0, r0
80014628:	00000000 	andeq	r0, r0, r0
8001462c:	00000000 	andeq	r0, r0, r0
80014630:	00000000 	andeq	r0, r0, r0
80014634:	00000000 	andeq	r0, r0, r0
80014638:	00000000 	andeq	r0, r0, r0
8001463c:	00000000 	andeq	r0, r0, r0
80014640:	00000000 	andeq	r0, r0, r0
80014644:	00000000 	andeq	r0, r0, r0
80014648:	00000000 	andeq	r0, r0, r0
8001464c:	00000000 	andeq	r0, r0, r0
80014650:	00000000 	andeq	r0, r0, r0
80014654:	00000000 	andeq	r0, r0, r0
80014658:	00000000 	andeq	r0, r0, r0
8001465c:	00000000 	andeq	r0, r0, r0
80014660:	00000000 	andeq	r0, r0, r0
80014664:	00000000 	andeq	r0, r0, r0
80014668:	00000000 	andeq	r0, r0, r0
8001466c:	00000000 	andeq	r0, r0, r0
80014670:	00000000 	andeq	r0, r0, r0
80014674:	00000000 	andeq	r0, r0, r0
80014678:	00000000 	andeq	r0, r0, r0
8001467c:	00000000 	andeq	r0, r0, r0
80014680:	00000000 	andeq	r0, r0, r0
80014684:	00000000 	andeq	r0, r0, r0
80014688:	00000000 	andeq	r0, r0, r0
8001468c:	00000000 	andeq	r0, r0, r0
80014690:	00000000 	andeq	r0, r0, r0
80014694:	00000000 	andeq	r0, r0, r0
80014698:	00000000 	andeq	r0, r0, r0
8001469c:	00000000 	andeq	r0, r0, r0
800146a0:	00000000 	andeq	r0, r0, r0
800146a4:	00000000 	andeq	r0, r0, r0
800146a8:	00000000 	andeq	r0, r0, r0
800146ac:	00000000 	andeq	r0, r0, r0
800146b0:	00000000 	andeq	r0, r0, r0
800146b4:	00000000 	andeq	r0, r0, r0
800146b8:	00000000 	andeq	r0, r0, r0
800146bc:	00000000 	andeq	r0, r0, r0
800146c0:	00000000 	andeq	r0, r0, r0
800146c4:	00000000 	andeq	r0, r0, r0
800146c8:	00000000 	andeq	r0, r0, r0
800146cc:	00000000 	andeq	r0, r0, r0
800146d0:	00000000 	andeq	r0, r0, r0
800146d4:	00000000 	andeq	r0, r0, r0
800146d8:	00000000 	andeq	r0, r0, r0
800146dc:	00000000 	andeq	r0, r0, r0
800146e0:	00000000 	andeq	r0, r0, r0
800146e4:	00000000 	andeq	r0, r0, r0
800146e8:	00000000 	andeq	r0, r0, r0
800146ec:	00000000 	andeq	r0, r0, r0
800146f0:	00000000 	andeq	r0, r0, r0
800146f4:	00000000 	andeq	r0, r0, r0
800146f8:	00000000 	andeq	r0, r0, r0
800146fc:	00000000 	andeq	r0, r0, r0
80014700:	00000000 	andeq	r0, r0, r0
80014704:	00000000 	andeq	r0, r0, r0
80014708:	00000000 	andeq	r0, r0, r0
8001470c:	00000000 	andeq	r0, r0, r0
80014710:	00000000 	andeq	r0, r0, r0
80014714:	00000000 	andeq	r0, r0, r0
80014718:	00000000 	andeq	r0, r0, r0
8001471c:	00000000 	andeq	r0, r0, r0
80014720:	00000000 	andeq	r0, r0, r0
80014724:	00000000 	andeq	r0, r0, r0
80014728:	00000000 	andeq	r0, r0, r0
8001472c:	00000000 	andeq	r0, r0, r0
80014730:	00000000 	andeq	r0, r0, r0
80014734:	00000000 	andeq	r0, r0, r0
80014738:	00000000 	andeq	r0, r0, r0
8001473c:	00000000 	andeq	r0, r0, r0
80014740:	00000000 	andeq	r0, r0, r0
80014744:	00000000 	andeq	r0, r0, r0
80014748:	00000000 	andeq	r0, r0, r0
8001474c:	00000000 	andeq	r0, r0, r0
80014750:	00000000 	andeq	r0, r0, r0
80014754:	00000000 	andeq	r0, r0, r0
80014758:	00000000 	andeq	r0, r0, r0
8001475c:	00000000 	andeq	r0, r0, r0
80014760:	00000000 	andeq	r0, r0, r0
80014764:	00000000 	andeq	r0, r0, r0
80014768:	00000000 	andeq	r0, r0, r0
8001476c:	00000000 	andeq	r0, r0, r0
80014770:	00000000 	andeq	r0, r0, r0
80014774:	00000000 	andeq	r0, r0, r0
80014778:	00000000 	andeq	r0, r0, r0
8001477c:	00000000 	andeq	r0, r0, r0
80014780:	00000000 	andeq	r0, r0, r0
80014784:	00000000 	andeq	r0, r0, r0
80014788:	00000000 	andeq	r0, r0, r0
8001478c:	00000000 	andeq	r0, r0, r0
80014790:	00000000 	andeq	r0, r0, r0
80014794:	00000000 	andeq	r0, r0, r0
80014798:	00000000 	andeq	r0, r0, r0
8001479c:	00000000 	andeq	r0, r0, r0
800147a0:	00000000 	andeq	r0, r0, r0
800147a4:	00000000 	andeq	r0, r0, r0
800147a8:	00000000 	andeq	r0, r0, r0
800147ac:	00000000 	andeq	r0, r0, r0
800147b0:	00000000 	andeq	r0, r0, r0
800147b4:	00000000 	andeq	r0, r0, r0
800147b8:	00000000 	andeq	r0, r0, r0
800147bc:	00000000 	andeq	r0, r0, r0
800147c0:	00000000 	andeq	r0, r0, r0
800147c4:	00000000 	andeq	r0, r0, r0
800147c8:	00000000 	andeq	r0, r0, r0
800147cc:	00000000 	andeq	r0, r0, r0
800147d0:	00000000 	andeq	r0, r0, r0
800147d4:	00000000 	andeq	r0, r0, r0
800147d8:	00000000 	andeq	r0, r0, r0
800147dc:	00000000 	andeq	r0, r0, r0
800147e0:	00000000 	andeq	r0, r0, r0
800147e4:	00000000 	andeq	r0, r0, r0
800147e8:	00000000 	andeq	r0, r0, r0
800147ec:	00000000 	andeq	r0, r0, r0
800147f0:	00000000 	andeq	r0, r0, r0
800147f4:	00000000 	andeq	r0, r0, r0
800147f8:	00000000 	andeq	r0, r0, r0
800147fc:	00000000 	andeq	r0, r0, r0
